target datalayout = "e-m:e-p270:32:32-p271:32:32-p272:64:64-i64:64-i128:128-f80:128-n8:16:32:64-S128"
target triple = "x86_64-pc-linux-gnu"

%struct.timeval = type { i64, i64 }
%struct.evhttp = type { %struct.anon.9, %struct.boundq, %struct.httpcbq, %struct.evconq, %struct.evwsq, i32, i32, %struct.vhostsq, %struct.aliasq, ptr, %struct.timeval, %struct.timeval, i64, i64, i32, ptr, i32, ptr, ptr, ptr, ptr, ptr, ptr, ptr, ptr, ptr, ptr }
%struct.anon.9 = type { ptr, ptr }
%struct.boundq = type { ptr, ptr }
%struct.httpcbq = type { ptr, ptr }
%struct.evconq = type { ptr, ptr }
%struct.evwsq = type { ptr, ptr }
%struct.vhostsq = type { ptr, ptr }
%struct.aliasq = type { ptr, ptr }

@.str.31 = private unnamed_addr constant [11 x i8] c"%s: calloc\00", align 1
@__func__.evhttp_new_object = private unnamed_addr constant [18 x i8] c"evhttp_new_object\00", align 1
@.str.159 = private unnamed_addr constant [30 x i8] c"text/html; charset=ISO-8859-1\00", align 1

; Function Attrs: nounwind uwtable
define void @evhttp_set_allowed_methods(ptr noundef %0, i32 noundef %1) #0 {
  %3 = alloca ptr, align 8
  %4 = alloca i32, align 4
  store ptr %0, ptr %3, align 8
  store i32 %1, ptr %4, align 4
  %5 = load i32, ptr %4, align 4
  %6 = load ptr, ptr %3, align 8
  %7 = getelementptr inbounds nuw %struct.evhttp, ptr %6, i32 0, i32 16
  store i32 %5, ptr %7, align 8
  ret void
}

; Function Attrs: nounwind uwtable
define void @evhttp_set_default_content_type(ptr noundef %0, ptr noundef %1) #0 {
  %3 = alloca ptr, align 8
  %4 = alloca ptr, align 8
  store ptr %0, ptr %3, align 8
  store ptr %1, ptr %4, align 8
  %5 = load ptr, ptr %4, align 8
  %6 = load ptr, ptr %3, align 8
  %7 = getelementptr inbounds nuw %struct.evhttp, ptr %6, i32 0, i32 15
  store ptr %5, ptr %7, align 8
  ret void
}

; Function Attrs: nounwind uwtable
define void @evhttp_set_max_body_size(ptr noundef %0, i64 noundef %1) #0 {
  %3 = alloca ptr, align 8
  %4 = alloca i64, align 8
  store ptr %0, ptr %3, align 8
  store i64 %1, ptr %4, align 8
  %5 = load i64, ptr %4, align 8
  %6 = icmp slt i64 %5, 0
  br i1 %6, label %7, label %10

7:                                                ; preds = %2
  %8 = load ptr, ptr %3, align 8
  %9 = getelementptr inbounds nuw %struct.evhttp, ptr %8, i32 0, i32 13
  store i64 -1, ptr %9, align 8
  br label %14

10:                                               ; preds = %2
  %11 = load i64, ptr %4, align 8
  %12 = load ptr, ptr %3, align 8
  %13 = getelementptr inbounds nuw %struct.evhttp, ptr %12, i32 0, i32 13
  store i64 %11, ptr %13, align 8
  br label %14

14:                                               ; preds = %10, %7
  ret void
}

; Function Attrs: nounwind uwtable
define void @evhttp_set_max_headers_size(ptr noundef %0, i64 noundef %1) #0 {
  %3 = alloca ptr, align 8
  %4 = alloca i64, align 8
  store ptr %0, ptr %3, align 8
  store i64 %1, ptr %4, align 8
  %5 = load i64, ptr %4, align 8
  %6 = icmp slt i64 %5, 0
  br i1 %6, label %7, label %10

7:                                                ; preds = %2
  %8 = load ptr, ptr %3, align 8
  %9 = getelementptr inbounds nuw %struct.evhttp, ptr %8, i32 0, i32 12
  store i64 -1, ptr %9, align 8
  br label %14

10:                                               ; preds = %2
  %11 = load i64, ptr %4, align 8
  %12 = load ptr, ptr %3, align 8
  %13 = getelementptr inbounds nuw %struct.evhttp, ptr %12, i32 0, i32 12
  store i64 %11, ptr %13, align 8
  br label %14

14:                                               ; preds = %10, %7
  ret void
}

; Function Attrs: nounwind uwtable
define internal ptr @evhttp_new_object() #0 {
  %1 = alloca ptr, align 8
  %2 = alloca ptr, align 8
  %3 = alloca i32, align 4
  call void @llvm.lifetime.start.p0(i64 8, ptr %2) #11
  store ptr null, ptr %2, align 8
  %4 = call ptr @event_mm_calloc_(i64 noundef 1, i64 noundef 280)
  store ptr %4, ptr %2, align 8
  %5 = icmp eq ptr %4, null
  br i1 %5, label %6, label %7

6:                                                ; preds = %0
  call void (ptr, ...) @event_warn(ptr noundef @.str.31, ptr noundef @__func__.evhttp_new_object)
  store ptr null, ptr %1, align 8
  store i32 1, ptr %3, align 4
  br label %97

7:                                                ; preds = %0
  %8 = load ptr, ptr %2, align 8
  %9 = getelementptr inbounds nuw %struct.evhttp, ptr %8, i32 0, i32 10
  %10 = getelementptr inbounds nuw %struct.timeval, ptr %9, i32 0, i32 1
  store i64 0, ptr %10, align 8
  %11 = load ptr, ptr %2, align 8
  %12 = getelementptr inbounds nuw %struct.evhttp, ptr %11, i32 0, i32 10
  %13 = getelementptr inbounds nuw %struct.timeval, ptr %12, i32 0, i32 0
  store i64 0, ptr %13, align 8
  %14 = load ptr, ptr %2, align 8
  %15 = getelementptr inbounds nuw %struct.evhttp, ptr %14, i32 0, i32 11
  %16 = getelementptr inbounds nuw %struct.timeval, ptr %15, i32 0, i32 1
  store i64 0, ptr %16, align 8
  %17 = load ptr, ptr %2, align 8
  %18 = getelementptr inbounds nuw %struct.evhttp, ptr %17, i32 0, i32 11
  %19 = getelementptr inbounds nuw %struct.timeval, ptr %18, i32 0, i32 0
  store i64 0, ptr %19, align 8
  %20 = load ptr, ptr %2, align 8
  call void @evhttp_set_max_headers_size(ptr noundef %20, i64 noundef -1)
  %21 = load ptr, ptr %2, align 8
  call void @evhttp_set_max_body_size(ptr noundef %21, i64 noundef -1)
  %22 = load ptr, ptr %2, align 8
  call void @evhttp_set_default_content_type(ptr noundef %22, ptr noundef @.str.159)
  %23 = load ptr, ptr %2, align 8
  call void @evhttp_set_allowed_methods(ptr noundef %23, i32 noundef 31)
  br label %24

24:                                               ; preds = %7
  %25 = load ptr, ptr %2, align 8
  %26 = getelementptr inbounds nuw %struct.evhttp, ptr %25, i32 0, i32 1
  %27 = getelementptr inbounds nuw %struct.boundq, ptr %26, i32 0, i32 0
  store ptr null, ptr %27, align 8
  %28 = load ptr, ptr %2, align 8
  %29 = getelementptr inbounds nuw %struct.evhttp, ptr %28, i32 0, i32 1
  %30 = getelementptr inbounds nuw %struct.boundq, ptr %29, i32 0, i32 0
  %31 = load ptr, ptr %2, align 8
  %32 = getelementptr inbounds nuw %struct.evhttp, ptr %31, i32 0, i32 1
  %33 = getelementptr inbounds nuw %struct.boundq, ptr %32, i32 0, i32 1
  store ptr %30, ptr %33, align 8
  br label %34

34:                                               ; preds = %24
  br label %35

35:                                               ; preds = %34
  br label %36

36:                                               ; preds = %35
  %37 = load ptr, ptr %2, align 8
  %38 = getelementptr inbounds nuw %struct.evhttp, ptr %37, i32 0, i32 2
  %39 = getelementptr inbounds nuw %struct.httpcbq, ptr %38, i32 0, i32 0
  store ptr null, ptr %39, align 8
  %40 = load ptr, ptr %2, align 8
  %41 = getelementptr inbounds nuw %struct.evhttp, ptr %40, i32 0, i32 2
  %42 = getelementptr inbounds nuw %struct.httpcbq, ptr %41, i32 0, i32 0
  %43 = load ptr, ptr %2, align 8
  %44 = getelementptr inbounds nuw %struct.evhttp, ptr %43, i32 0, i32 2
  %45 = getelementptr inbounds nuw %struct.httpcbq, ptr %44, i32 0, i32 1
  store ptr %42, ptr %45, align 8
  br label %46

46:                                               ; preds = %36
  br label %47

47:                                               ; preds = %46
  br label %48

48:                                               ; preds = %47
  %49 = load ptr, ptr %2, align 8
  %50 = getelementptr inbounds nuw %struct.evhttp, ptr %49, i32 0, i32 3
  %51 = getelementptr inbounds nuw %struct.evconq, ptr %50, i32 0, i32 0
  store ptr null, ptr %51, align 8
  %52 = load ptr, ptr %2, align 8
  %53 = getelementptr inbounds nuw %struct.evhttp, ptr %52, i32 0, i32 3
  %54 = getelementptr inbounds nuw %struct.evconq, ptr %53, i32 0, i32 0
  %55 = load ptr, ptr %2, align 8
  %56 = getelementptr inbounds nuw %struct.evhttp, ptr %55, i32 0, i32 3
  %57 = getelementptr inbounds nuw %struct.evconq, ptr %56, i32 0, i32 1
  store ptr %54, ptr %57, align 8
  br label %58

58:                                               ; preds = %48
  br label %59

59:                                               ; preds = %58
  br label %60

60:                                               ; preds = %59
  %61 = load ptr, ptr %2, align 8
  %62 = getelementptr inbounds nuw %struct.evhttp, ptr %61, i32 0, i32 4
  %63 = getelementptr inbounds nuw %struct.evwsq, ptr %62, i32 0, i32 0
  store ptr null, ptr %63, align 8
  %64 = load ptr, ptr %2, align 8
  %65 = getelementptr inbounds nuw %struct.evhttp, ptr %64, i32 0, i32 4
  %66 = getelementptr inbounds nuw %struct.evwsq, ptr %65, i32 0, i32 0
  %67 = load ptr, ptr %2, align 8
  %68 = getelementptr inbounds nuw %struct.evhttp, ptr %67, i32 0, i32 4
  %69 = getelementptr inbounds nuw %struct.evwsq, ptr %68, i32 0, i32 1
  store ptr %66, ptr %69, align 8
  br label %70

70:                                               ; preds = %60
  br label %71

71:                                               ; preds = %70
  br label %72

72:                                               ; preds = %71
  %73 = load ptr, ptr %2, align 8
  %74 = getelementptr inbounds nuw %struct.evhttp, ptr %73, i32 0, i32 7
  %75 = getelementptr inbounds nuw %struct.vhostsq, ptr %74, i32 0, i32 0
  store ptr null, ptr %75, align 8
  %76 = load ptr, ptr %2, align 8
  %77 = getelementptr inbounds nuw %struct.evhttp, ptr %76, i32 0, i32 7
  %78 = getelementptr inbounds nuw %struct.vhostsq, ptr %77, i32 0, i32 0
  %79 = load ptr, ptr %2, align 8
  %80 = getelementptr inbounds nuw %struct.evhttp, ptr %79, i32 0, i32 7
  %81 = getelementptr inbounds nuw %struct.vhostsq, ptr %80, i32 0, i32 1
  store ptr %78, ptr %81, align 8
  br label %82

82:                                               ; preds = %72
  br label %83

83:                                               ; preds = %82
  br label %84

84:                                               ; preds = %83
  %85 = load ptr, ptr %2, align 8
  %86 = getelementptr inbounds nuw %struct.evhttp, ptr %85, i32 0, i32 8
  %87 = getelementptr inbounds nuw %struct.aliasq, ptr %86, i32 0, i32 0
  store ptr null, ptr %87, align 8
  %88 = load ptr, ptr %2, align 8
  %89 = getelementptr inbounds nuw %struct.evhttp, ptr %88, i32 0, i32 8
  %90 = getelementptr inbounds nuw %struct.aliasq, ptr %89, i32 0, i32 0
  %91 = load ptr, ptr %2, align 8
  %92 = getelementptr inbounds nuw %struct.evhttp, ptr %91, i32 0, i32 8
  %93 = getelementptr inbounds nuw %struct.aliasq, ptr %92, i32 0, i32 1
  store ptr %90, ptr %93, align 8
  br label %94

94:                                               ; preds = %84
  br label %95

95:                                               ; preds = %94
  %96 = load ptr, ptr %2, align 8
  store ptr %96, ptr %1, align 8
  store i32 1, ptr %3, align 4
  br label %97

97:                                               ; preds = %95, %6
  call void @llvm.lifetime.end.p0(i64 8, ptr %2) #11
  %98 = load ptr, ptr %1, align 8
  ret ptr %98
}

; Function Attrs: nounwind uwtable
define ptr @evhttp_new(ptr noundef %0) #0 {
  %2 = alloca ptr, align 8
  %3 = alloca ptr, align 8
  %4 = alloca ptr, align 8
  %5 = alloca i32, align 4
  store ptr %0, ptr %3, align 8
  call void @llvm.lifetime.start.p0(i64 8, ptr %4) #11
  store ptr null, ptr %4, align 8
  %6 = call ptr @evhttp_new_object()
  store ptr %6, ptr %4, align 8
  %7 = load ptr, ptr %4, align 8
  %8 = icmp eq ptr %7, null
  br i1 %8, label %9, label %10

9:                                                ; preds = %1
  store ptr null, ptr %2, align 8
  store i32 1, ptr %5, align 4
  br label %15

10:                                               ; preds = %1
  %11 = load ptr, ptr %3, align 8
  %12 = load ptr, ptr %4, align 8
  %13 = getelementptr inbounds nuw %struct.evhttp, ptr %12, i32 0, i32 25
  store ptr %11, ptr %13, align 8
  %14 = load ptr, ptr %4, align 8
  store ptr %14, ptr %2, align 8
  store i32 1, ptr %5, align 4
  br label %15

15:                                               ; preds = %10, %9
  call void @llvm.lifetime.end.p0(i64 8, ptr %4) #11
  %16 = load ptr, ptr %2, align 8
  ret ptr %16
}