; Function Attrs: nounwind uwtable
define ptr @evhttp_new(ptr noundef %0) local_unnamed_addr #0 {
  %2 = tail call ptr @event_mm_calloc_(i64 noundef 1, i64 noundef 280) #18
  %3 = icmp eq ptr %2, null
  br i1 %3, label %evhttp_new_object.exit.thread, label %4

evhttp_new_object.exit.thread:                    ; preds = %1
  tail call void (ptr, ...) @event_warn(ptr noundef nonnull @.str.31, ptr noundef nonnull @__func__.evhttp_new_object) #18
  br label %22

4:                                                ; preds = %1
  %5 = getelementptr inbounds nuw i8, ptr %2, i64 128
  %6 = getelementptr inbounds nuw i8, ptr %2, i64 160
  tail call void @llvm.memset.p0.i64(ptr noundef nonnull align 8 dereferenceable(32) %5, i8 0, i64 32, i1 false)
  %7 = getelementptr inbounds nuw i8, ptr %2, i64 184
  tail call void @llvm.memset.p0.i64(ptr noundef nonnull align 8 dereferenceable(16) %6, i8 -1, i64 16, i1 false)
  store ptr @.str.159, ptr %7, align 8
  %8 = getelementptr inbounds nuw i8, ptr %2, i64 192
  store i32 31, ptr %8, align 8
  %9 = getelementptr inbounds nuw i8, ptr %2, i64 16
  store ptr null, ptr %9, align 8
  %10 = getelementptr inbounds nuw i8, ptr %2, i64 24
  store ptr %9, ptr %10, align 8
  %11 = getelementptr inbounds nuw i8, ptr %2, i64 32
  store ptr null, ptr %11, align 8
  %12 = getelementptr inbounds nuw i8, ptr %2, i64 40
  store ptr %11, ptr %12, align 8
  %13 = getelementptr inbounds nuw i8, ptr %2, i64 48
  store ptr null, ptr %13, align 8
  %14 = getelementptr inbounds nuw i8, ptr %2, i64 56
  store ptr %13, ptr %14, align 8
  %15 = getelementptr inbounds nuw i8, ptr %2, i64 64
  store ptr null, ptr %15, align 8
  %16 = getelementptr inbounds nuw i8, ptr %2, i64 72
  store ptr %15, ptr %16, align 8
  %17 = getelementptr inbounds nuw i8, ptr %2, i64 88
  store ptr null, ptr %17, align 8
  %18 = getelementptr inbounds nuw i8, ptr %2, i64 96
  store ptr %17, ptr %18, align 8
  %19 = getelementptr inbounds nuw i8, ptr %2, i64 104
  store ptr null, ptr %19, align 8
  %20 = getelementptr inbounds nuw i8, ptr %2, i64 112
  store ptr %19, ptr %20, align 8
  %21 = getelementptr inbounds nuw i8, ptr %2, i64 264
  store ptr %0, ptr %21, align 8
  br label %22

22:                                               ; preds = %evhttp_new_object.exit.thread, %4
  ret ptr %2
}